target datalayout = "e-m:e-p270:32:32-p271:32:32-p272:64:64-i64:64-i128:128-f80:128-n8:16:32:64-S128"
target triple = "x86_64-pc-linux-gnu"

%struct.nstime_t = type { i64, i32 }
%struct._proto_node = type { ptr, ptr, ptr, ptr, ptr, ptr, ptr }
%struct.tm = type { i32, i32, i32, i32, i32, i32, i32, i32, i32, i64, ptr }

@hf_gbcs_message_element_length = internal global i32 0, align 4
@ett_gbcs_message_element = internal global i32 0, align 4
@.str.573 = private unnamed_addr constant [1 x i8] zeroinitializer, align 1
@.str.578 = private unnamed_addr constant [3 x i8] c"%s\00", align 1
@.str.579 = private unnamed_addr constant [11 x i8] c"%s: <none>\00", align 1

; Function Attrs: null_pointer_is_valid sspstrong uwtable
define internal void @dlms_date_time(ptr noundef %0, i32 noundef %1, ptr noundef %2) #0 {
  %4 = alloca ptr, align 8
  %5 = alloca i32, align 4
  %6 = alloca ptr, align 8
  %7 = alloca %struct.tm, align 8
  store ptr %0, ptr %4, align 8
  store i32 %1, ptr %5, align 4
  store ptr %2, ptr %6, align 8
  call void @llvm.lifetime.start.p0(i64 56, ptr %7) #5
  %8 = getelementptr inbounds nuw %struct.tm, ptr %7, i32 0, i32 6
  store i32 0, ptr %8, align 8
  %9 = getelementptr inbounds nuw %struct.tm, ptr %7, i32 0, i32 7
  store i32 0, ptr %9, align 4
  %10 = getelementptr inbounds nuw %struct.tm, ptr %7, i32 0, i32 8
  store i32 -1, ptr %10, align 8
  %11 = load ptr, ptr %4, align 8
  %12 = load i32, ptr %5, align 4
  %13 = call zeroext i16 @tvb_get_uint16(ptr noundef %11, i32 noundef %12, i32 noundef 0)
  %14 = zext i16 %13 to i32
  %15 = sub i32 %14, 1900
  %16 = getelementptr inbounds nuw %struct.tm, ptr %7, i32 0, i32 5
  store i32 %15, ptr %16, align 4
  %17 = load i32, ptr %5, align 4
  %18 = add i32 %17, 2
  store i32 %18, ptr %5, align 4
  %19 = load ptr, ptr %4, align 8
  %20 = load i32, ptr %5, align 4
  %21 = call zeroext i8 @tvb_get_uint8(ptr noundef %19, i32 noundef %20)
  %22 = zext i8 %21 to i32
  %23 = sub i32 %22, 1
  %24 = getelementptr inbounds nuw %struct.tm, ptr %7, i32 0, i32 4
  store i32 %23, ptr %24, align 8
  %25 = load i32, ptr %5, align 4
  %26 = add i32 %25, 1
  store i32 %26, ptr %5, align 4
  %27 = load ptr, ptr %4, align 8
  %28 = load i32, ptr %5, align 4
  %29 = call zeroext i8 @tvb_get_uint8(ptr noundef %27, i32 noundef %28)
  %30 = zext i8 %29 to i32
  %31 = getelementptr inbounds nuw %struct.tm, ptr %7, i32 0, i32 3
  store i32 %30, ptr %31, align 4
  %32 = load i32, ptr %5, align 4
  %33 = add i32 %32, 1
  store i32 %33, ptr %5, align 4
  %34 = load i32, ptr %5, align 4
  %35 = add i32 %34, 1
  store i32 %35, ptr %5, align 4
  %36 = load ptr, ptr %4, align 8
  %37 = load i32, ptr %5, align 4
  %38 = call zeroext i8 @tvb_get_uint8(ptr noundef %36, i32 noundef %37)
  %39 = zext i8 %38 to i32
  %40 = getelementptr inbounds nuw %struct.tm, ptr %7, i32 0, i32 2
  store i32 %39, ptr %40, align 8
  %41 = load i32, ptr %5, align 4
  %42 = add i32 %41, 1
  store i32 %42, ptr %5, align 4
  %43 = load ptr, ptr %4, align 8
  %44 = load i32, ptr %5, align 4
  %45 = call zeroext i8 @tvb_get_uint8(ptr noundef %43, i32 noundef %44)
  %46 = zext i8 %45 to i32
  %47 = getelementptr inbounds nuw %struct.tm, ptr %7, i32 0, i32 1
  store i32 %46, ptr %47, align 4
  %48 = load i32, ptr %5, align 4
  %49 = add i32 %48, 1
  store i32 %49, ptr %5, align 4
  %50 = load ptr, ptr %4, align 8
  %51 = load i32, ptr %5, align 4
  %52 = call zeroext i8 @tvb_get_uint8(ptr noundef %50, i32 noundef %51)
  %53 = zext i8 %52 to i32
  %54 = getelementptr inbounds nuw %struct.tm, ptr %7, i32 0, i32 0
  store i32 %53, ptr %54, align 8
  %55 = call i64 @mktime_utc(ptr noundef %7)
  %56 = load ptr, ptr %6, align 8
  %57 = getelementptr inbounds nuw %struct.nstime_t, ptr %56, i32 0, i32 0
  store i64 %55, ptr %57, align 8
  %58 = load ptr, ptr %6, align 8
  %59 = getelementptr inbounds nuw %struct.nstime_t, ptr %58, i32 0, i32 1
  store i32 0, ptr %59, align 8
  call void @llvm.lifetime.end.p0(i64 56, ptr %7) #5
  ret void
}

; Function Attrs: null_pointer_is_valid sspstrong uwtable
define internal void @dissect_gbcs_message_element_date_time(ptr noundef %0, i32 noundef %1, ptr noundef %2, ptr noundef %3) #0 {
  %5 = alloca ptr, align 8
  %6 = alloca i32, align 4
  %7 = alloca ptr, align 8
  %8 = alloca ptr, align 8
  %9 = alloca ptr, align 8
  %10 = alloca ptr, align 8
  %11 = alloca ptr, align 8
  %12 = alloca i32, align 4
  %13 = alloca %struct.nstime_t, align 8
  %14 = alloca ptr, align 8
  store ptr %0, ptr %5, align 8
  store i32 %1, ptr %6, align 4
  store ptr %2, ptr %7, align 8
  store ptr %3, ptr %8, align 8
  call void @llvm.lifetime.start.p0(i64 8, ptr %9) #5
  call void @llvm.lifetime.start.p0(i64 8, ptr %10) #5
  call void @llvm.lifetime.start.p0(i64 8, ptr %11) #5
  call void @llvm.lifetime.start.p0(i64 4, ptr %12) #5
  %15 = load ptr, ptr %5, align 8
  %16 = load ptr, ptr %7, align 8
  %17 = load ptr, ptr %8, align 8
  %18 = load i32, ptr %17, align 4
  %19 = load i32, ptr @ett_gbcs_message_element, align 4
  %20 = call ptr @proto_tree_add_subtree(ptr noundef %15, ptr noundef %16, i32 noundef %18, i32 noundef 1, i32 noundef %19, ptr noundef %10, ptr noundef @.str.573)
  store ptr %20, ptr %9, align 8
  %21 = load ptr, ptr %9, align 8
  %22 = load i32, ptr @hf_gbcs_message_element_length, align 4
  %23 = load ptr, ptr %7, align 8
  %24 = load ptr, ptr %8, align 8
  %25 = load i32, ptr %24, align 4
  %26 = call ptr @proto_tree_add_item_ret_uint(ptr noundef %21, i32 noundef %22, ptr noundef %23, i32 noundef %25, i32 noundef 1, i32 noundef 0, ptr noundef %12)
  %27 = load ptr, ptr %8, align 8
  %28 = load i32, ptr %27, align 4
  %29 = add i32 %28, 1
  store i32 %29, ptr %27, align 4
  %30 = load i32, ptr %12, align 4
  %31 = icmp ugt i32 %30, 0
  br i1 %31, label %32, label %61

32:                                               ; preds = %4
  call void @llvm.lifetime.start.p0(i64 16, ptr %13) #5
  %33 = load ptr, ptr %7, align 8
  %34 = load ptr, ptr %8, align 8
  %35 = load i32, ptr %34, align 4
  call void @dlms_date_time(ptr noundef %33, i32 noundef %35, ptr noundef %13)
  %36 = load ptr, ptr %9, align 8
  %37 = load i32, ptr %6, align 4
  %38 = load ptr, ptr %7, align 8
  %39 = load ptr, ptr %8, align 8
  %40 = load i32, ptr %39, align 4
  %41 = call ptr @proto_tree_add_time(ptr noundef %36, i32 noundef %37, ptr noundef %38, i32 noundef %40, i32 noundef 12, ptr noundef %13)
  store ptr %41, ptr %11, align 8
  %42 = load ptr, ptr %11, align 8
  %43 = icmp ne ptr %42, null
  br i1 %43, label %44, label %53

44:                                               ; preds = %32
  call void @llvm.lifetime.start.p0(i64 8, ptr %14) #5
  %45 = call ptr @wmem_packet_scope()
  %46 = call noalias ptr @wmem_alloc(ptr noundef %45, i64 noundef 241) #6
  store ptr %46, ptr %14, align 8
  %47 = load ptr, ptr %11, align 8
  %48 = getelementptr inbounds nuw %struct._proto_node, ptr %47, i32 0, i32 5
  %49 = load ptr, ptr %48, align 8
  %50 = load ptr, ptr %14, align 8
  call void @proto_item_fill_label(ptr noundef %49, ptr noundef %50, ptr noundef null)
  %51 = load ptr, ptr %10, align 8
  %52 = load ptr, ptr %14, align 8
  call void (ptr, ptr, ...) @proto_item_append_text(ptr noundef %51, ptr noundef @.str.578, ptr noundef %52)
  call void @llvm.lifetime.end.p0(i64 8, ptr %14) #5
  br label %53

53:                                               ; preds = %44, %32
  %54 = load ptr, ptr %8, align 8
  %55 = load i32, ptr %54, align 4
  %56 = add i32 %55, 12
  store i32 %56, ptr %54, align 4
  %57 = load ptr, ptr %10, align 8
  %58 = load ptr, ptr %7, align 8
  %59 = load ptr, ptr %8, align 8
  %60 = load i32, ptr %59, align 4
  call void @proto_item_set_end(ptr noundef %57, ptr noundef %58, i32 noundef %60)
  call void @llvm.lifetime.end.p0(i64 16, ptr %13) #5
  br label %65

61:                                               ; preds = %4
  %62 = load ptr, ptr %10, align 8
  %63 = load i32, ptr %6, align 4
  %64 = call ptr @proto_registrar_get_name(i32 noundef %63)
  call void (ptr, ptr, ...) @proto_item_append_text(ptr noundef %62, ptr noundef @.str.579, ptr noundef %64)
  br label %65

65:                                               ; preds = %61, %53
  call void @llvm.lifetime.end.p0(i64 4, ptr %12) #5
  call void @llvm.lifetime.end.p0(i64 8, ptr %11) #5
  call void @llvm.lifetime.end.p0(i64 8, ptr %10) #5
  call void @llvm.lifetime.end.p0(i64 8, ptr %9) #5
  ret void
}