; Function Attrs: null_pointer_is_valid sspstrong uwtable
define internal fastcc void @dissect_gbcs_message_element_date_time(ptr noundef %0, i32 noundef %1, ptr noundef %2, ptr noundef captures(none) %3) unnamed_addr #0 {
  %5 = alloca %struct.tm, align 8
  %6 = alloca ptr, align 8
  %7 = alloca i32, align 4
  %8 = alloca %struct.nstime_t, align 8
  call void @llvm.lifetime.start.p0(i64 8, ptr nonnull %6) #6
  call void @llvm.lifetime.start.p0(i64 4, ptr nonnull %7) #6
  %9 = load i32, ptr %3, align 4
  %10 = load i32, ptr @ett_gbcs_message_element, align 4
  %11 = call ptr @proto_tree_add_subtree(ptr noundef %0, ptr noundef %2, i32 noundef %9, i32 noundef 1, i32 noundef %10, ptr noundef nonnull %6, ptr noundef nonnull @.str.573)
  %12 = load i32, ptr @hf_gbcs_message_element_length, align 4
  %13 = load i32, ptr %3, align 4
  %14 = call ptr @proto_tree_add_item_ret_uint(ptr noundef %11, i32 noundef %12, ptr noundef %2, i32 noundef %13, i32 noundef 1, i32 noundef 0, ptr noundef nonnull %7)
  %15 = load i32, ptr %3, align 4
  %16 = add i32 %15, 1
  store i32 %16, ptr %3, align 4
  %17 = load i32, ptr %7, align 4
  %.not = icmp eq i32 %17, 0
  br i1 %.not, label %60, label %18

18:                                               ; preds = %4
  call void @llvm.lifetime.start.p0(i64 16, ptr nonnull %8) #6
  call void @llvm.lifetime.start.p0(i64 56, ptr nonnull %5) #6
  %19 = getelementptr inbounds nuw i8, ptr %5, i64 24
  store i32 0, ptr %19, align 8
  %20 = getelementptr inbounds nuw i8, ptr %5, i64 28
  store i32 0, ptr %20, align 4
  %21 = getelementptr inbounds nuw i8, ptr %5, i64 32
  store i32 -1, ptr %21, align 8
  %22 = call zeroext i16 @tvb_get_uint16(ptr noundef %2, i32 noundef %16, i32 noundef 0)
  %23 = zext i16 %22 to i32
  %24 = add nsw i32 %23, -1900
  %25 = getelementptr inbounds nuw i8, ptr %5, i64 20
  store i32 %24, ptr %25, align 4
  %26 = add i32 %15, 3
  %27 = call zeroext i8 @tvb_get_uint8(ptr noundef %2, i32 noundef %26)
  %28 = zext i8 %27 to i32
  %29 = add nsw i32 %28, -1
  %30 = getelementptr inbounds nuw i8, ptr %5, i64 16
  store i32 %29, ptr %30, align 8
  %31 = add i32 %15, 4
  %32 = call zeroext i8 @tvb_get_uint8(ptr noundef %2, i32 noundef %31)
  %33 = zext i8 %32 to i32
  %34 = getelementptr inbounds nuw i8, ptr %5, i64 12
  store i32 %33, ptr %34, align 4
  %35 = add i32 %15, 6
  %36 = call zeroext i8 @tvb_get_uint8(ptr noundef %2, i32 noundef %35)
  %37 = zext i8 %36 to i32
  %38 = getelementptr inbounds nuw i8, ptr %5, i64 8
  store i32 %37, ptr %38, align 8
  %39 = add i32 %15, 7
  %40 = call zeroext i8 @tvb_get_uint8(ptr noundef %2, i32 noundef %39)
  %41 = zext i8 %40 to i32
  %42 = getelementptr inbounds nuw i8, ptr %5, i64 4
  store i32 %41, ptr %42, align 4
  %43 = add i32 %15, 8
  %44 = call zeroext i8 @tvb_get_uint8(ptr noundef %2, i32 noundef %43)
  %45 = zext i8 %44 to i32
  store i32 %45, ptr %5, align 8
  %46 = call i64 @mktime_utc(ptr noundef nonnull %5)
  store i64 %46, ptr %8, align 8
  %47 = getelementptr inbounds nuw i8, ptr %8, i64 8
  store i32 0, ptr %47, align 8
  call void @llvm.lifetime.end.p0(i64 56, ptr nonnull %5) #6
  %48 = load i32, ptr %3, align 4
  %49 = call ptr @proto_tree_add_time(ptr noundef %11, i32 noundef %1, ptr noundef %2, i32 noundef %48, i32 noundef 12, ptr noundef nonnull %8)
  %.not20 = icmp eq ptr %49, null
  br i1 %.not20, label %56, label %50

50:                                               ; preds = %18
  %51 = call ptr @wmem_packet_scope()
  %52 = call noalias dereferenceable_or_null(241) ptr @wmem_alloc(ptr noundef %51, i64 noundef 241) #7
  %53 = getelementptr inbounds nuw i8, ptr %49, i64 40
  %54 = load ptr, ptr %53, align 8
  call void @proto_item_fill_label(ptr noundef %54, ptr noundef %52, ptr noundef null)
  %55 = load ptr, ptr %6, align 8
  call void (ptr, ptr, ...) @proto_item_append_text(ptr noundef %55, ptr noundef nonnull @.str.578, ptr noundef %52)
  br label %56

56:                                               ; preds = %50, %18
  %57 = load i32, ptr %3, align 4
  %58 = add i32 %57, 12
  store i32 %58, ptr %3, align 4
  %59 = load ptr, ptr %6, align 8
  call void @proto_item_set_end(ptr noundef %59, ptr noundef %2, i32 noundef %58)
  call void @llvm.lifetime.end.p0(i64 16, ptr nonnull %8) #6
  br label %63

60:                                               ; preds = %4
  %61 = load ptr, ptr %6, align 8
  %62 = call ptr @proto_registrar_get_name(i32 noundef %1)
  call void (ptr, ptr, ...) @proto_item_append_text(ptr noundef %61, ptr noundef nonnull @.str.579, ptr noundef %62)
  br label %63

63:                                               ; preds = %60, %56
  call void @llvm.lifetime.end.p0(i64 4, ptr nonnull %7) #6
  call void @llvm.lifetime.end.p0(i64 8, ptr nonnull %6) #6
  ret void
}